target datalayout = "e-m:e-p270:32:32-p271:32:32-p272:64:64-i64:64-i128:128-f80:128-n8:16:32:64-S128"
target triple = "x86_64-pc-linux-gnu"

; Function Attrs: mustprogress uwtable
define internal void @_ZN7lodepngL15mulMatrixMatrixEPfPKfS2_(ptr noundef %0, ptr noundef %1, ptr noundef %2) #0 {
  %4 = alloca ptr, align 8
  %5 = alloca ptr, align 8
  %6 = alloca ptr, align 8
  %7 = alloca i32, align 4
  %8 = alloca [9 x float], align 16
  store ptr %0, ptr %4, align 8, !tbaa !87
  store ptr %1, ptr %5, align 8, !tbaa !87
  store ptr %2, ptr %6, align 8, !tbaa !87
  call void @llvm.lifetime.start.p0(i64 4, ptr %7) #19
  call void @llvm.lifetime.start.p0(i64 36, ptr %8) #19
  %9 = getelementptr inbounds [9 x float], ptr %8, i64 0, i64 0
  %10 = getelementptr inbounds [9 x float], ptr %8, i64 0, i64 3
  %11 = getelementptr inbounds [9 x float], ptr %8, i64 0, i64 6
  %12 = load ptr, ptr %5, align 8, !tbaa !87
  %13 = load ptr, ptr %6, align 8, !tbaa !87
  %14 = getelementptr inbounds float, ptr %13, i64 0
  %15 = load float, ptr %14, align 4, !tbaa !100
  %16 = fpext float %15 to double
  %17 = load ptr, ptr %6, align 8, !tbaa !87
  %18 = getelementptr inbounds float, ptr %17, i64 3
  %19 = load float, ptr %18, align 4, !tbaa !100
  %20 = fpext float %19 to double
  %21 = load ptr, ptr %6, align 8, !tbaa !87
  %22 = getelementptr inbounds float, ptr %21, i64 6
  %23 = load float, ptr %22, align 4, !tbaa !100
  %24 = fpext float %23 to double
  call void @_ZN7lodepngL9mulMatrixEPfS0_S0_PKfddd(ptr noundef %9, ptr noundef %10, ptr noundef %11, ptr noundef %12, double noundef %16, double noundef %20, double noundef %24)
  %25 = getelementptr inbounds [9 x float], ptr %8, i64 0, i64 1
  %26 = getelementptr inbounds [9 x float], ptr %8, i64 0, i64 4
  %27 = getelementptr inbounds [9 x float], ptr %8, i64 0, i64 7
  %28 = load ptr, ptr %5, align 8, !tbaa !87
  %29 = load ptr, ptr %6, align 8, !tbaa !87
  %30 = getelementptr inbounds float, ptr %29, i64 1
  %31 = load float, ptr %30, align 4, !tbaa !100
  %32 = fpext float %31 to double
  %33 = load ptr, ptr %6, align 8, !tbaa !87
  %34 = getelementptr inbounds float, ptr %33, i64 4
  %35 = load float, ptr %34, align 4, !tbaa !100
  %36 = fpext float %35 to double
  %37 = load ptr, ptr %6, align 8, !tbaa !87
  %38 = getelementptr inbounds float, ptr %37, i64 7
  %39 = load float, ptr %38, align 4, !tbaa !100
  %40 = fpext float %39 to double
  call void @_ZN7lodepngL9mulMatrixEPfS0_S0_PKfddd(ptr noundef %25, ptr noundef %26, ptr noundef %27, ptr noundef %28, double noundef %32, double noundef %36, double noundef %40)
  %41 = getelementptr inbounds [9 x float], ptr %8, i64 0, i64 2
  %42 = getelementptr inbounds [9 x float], ptr %8, i64 0, i64 5
  %43 = getelementptr inbounds [9 x float], ptr %8, i64 0, i64 8
  %44 = load ptr, ptr %5, align 8, !tbaa !87
  %45 = load ptr, ptr %6, align 8, !tbaa !87
  %46 = getelementptr inbounds float, ptr %45, i64 2
  %47 = load float, ptr %46, align 4, !tbaa !100
  %48 = fpext float %47 to double
  %49 = load ptr, ptr %6, align 8, !tbaa !87
  %50 = getelementptr inbounds float, ptr %49, i64 5
  %51 = load float, ptr %50, align 4, !tbaa !100
  %52 = fpext float %51 to double
  %53 = load ptr, ptr %6, align 8, !tbaa !87
  %54 = getelementptr inbounds float, ptr %53, i64 8
  %55 = load float, ptr %54, align 4, !tbaa !100
  %56 = fpext float %55 to double
  call void @_ZN7lodepngL9mulMatrixEPfS0_S0_PKfddd(ptr noundef %41, ptr noundef %42, ptr noundef %43, ptr noundef %44, double noundef %48, double noundef %52, double noundef %56)
  store i32 0, ptr %7, align 4, !tbaa !9
  br label %57

57:                                               ; preds = %69, %3
  %58 = load i32, ptr %7, align 4, !tbaa !9
  %59 = icmp slt i32 %58, 9
  br i1 %59, label %60, label %72

60:                                               ; preds = %57
  %61 = load i32, ptr %7, align 4, !tbaa !9
  %62 = sext i32 %61 to i64
  %63 = getelementptr inbounds [9 x float], ptr %8, i64 0, i64 %62
  %64 = load float, ptr %63, align 4, !tbaa !100
  %65 = load ptr, ptr %4, align 8, !tbaa !87
  %66 = load i32, ptr %7, align 4, !tbaa !9
  %67 = sext i32 %66 to i64
  %68 = getelementptr inbounds float, ptr %65, i64 %67
  store float %64, ptr %68, align 4, !tbaa !100
  br label %69

69:                                               ; preds = %60
  %70 = load i32, ptr %7, align 4, !tbaa !9
  %71 = add nsw i32 %70, 1
  store i32 %71, ptr %7, align 4, !tbaa !9
  br label %57, !llvm.loop !189

72:                                               ; preds = %57
  call void @llvm.lifetime.end.p0(i64 36, ptr %8) #19
  call void @llvm.lifetime.end.p0(i64 4, ptr %7) #19
  ret void
}

; Function Attrs: mustprogress nounwind uwtable
define internal void @_ZN7lodepngL9mulMatrixEPfS0_S0_PKfddd(ptr noundef %0, ptr noundef %1, ptr noundef %2, ptr noundef %3, double noundef %4, double noundef %5, double noundef %6) #3 {
  %8 = alloca ptr, align 8
  %9 = alloca ptr, align 8
  %10 = alloca ptr, align 8
  %11 = alloca ptr, align 8
  %12 = alloca double, align 8
  %13 = alloca double, align 8
  %14 = alloca double, align 8
  store ptr %0, ptr %8, align 8, !tbaa !87
  store ptr %1, ptr %9, align 8, !tbaa !87
  store ptr %2, ptr %10, align 8, !tbaa !87
  store ptr %3, ptr %11, align 8, !tbaa !87
  store double %4, ptr %12, align 8, !tbaa !182
  store double %5, ptr %13, align 8, !tbaa !182
  store double %6, ptr %14, align 8, !tbaa !182
  %15 = load double, ptr %12, align 8, !tbaa !182
  %16 = load ptr, ptr %11, align 8, !tbaa !87
  %17 = getelementptr inbounds float, ptr %16, i64 0
  %18 = load float, ptr %17, align 4, !tbaa !100
  %19 = fpext float %18 to double
  %20 = load double, ptr %13, align 8, !tbaa !182
  %21 = load ptr, ptr %11, align 8, !tbaa !87
  %22 = getelementptr inbounds float, ptr %21, i64 1
  %23 = load float, ptr %22, align 4, !tbaa !100
  %24 = fpext float %23 to double
  %25 = fmul double %20, %24
  %26 = call double @llvm.fmuladd.f64(double %15, double %19, double %25)
  %27 = load double, ptr %14, align 8, !tbaa !182
  %28 = load ptr, ptr %11, align 8, !tbaa !87
  %29 = getelementptr inbounds float, ptr %28, i64 2
  %30 = load float, ptr %29, align 4, !tbaa !100
  %31 = fpext float %30 to double
  %32 = call double @llvm.fmuladd.f64(double %27, double %31, double %26)
  %33 = fptrunc double %32 to float
  %34 = load ptr, ptr %8, align 8, !tbaa !87
  store float %33, ptr %34, align 4, !tbaa !100
  %35 = load double, ptr %12, align 8, !tbaa !182
  %36 = load ptr, ptr %11, align 8, !tbaa !87
  %37 = getelementptr inbounds float, ptr %36, i64 3
  %38 = load float, ptr %37, align 4, !tbaa !100
  %39 = fpext float %38 to double
  %40 = load double, ptr %13, align 8, !tbaa !182
  %41 = load ptr, ptr %11, align 8, !tbaa !87
  %42 = getelementptr inbounds float, ptr %41, i64 4
  %43 = load float, ptr %42, align 4, !tbaa !100
  %44 = fpext float %43 to double
  %45 = fmul double %40, %44
  %46 = call double @llvm.fmuladd.f64(double %35, double %39, double %45)
  %47 = load double, ptr %14, align 8, !tbaa !182
  %48 = load ptr, ptr %11, align 8, !tbaa !87
  %49 = getelementptr inbounds float, ptr %48, i64 5
  %50 = load float, ptr %49, align 4, !tbaa !100
  %51 = fpext float %50 to double
  %52 = call double @llvm.fmuladd.f64(double %47, double %51, double %46)
  %53 = fptrunc double %52 to float
  %54 = load ptr, ptr %9, align 8, !tbaa !87
  store float %53, ptr %54, align 4, !tbaa !100
  %55 = load double, ptr %12, align 8, !tbaa !182
  %56 = load ptr, ptr %11, align 8, !tbaa !87
  %57 = getelementptr inbounds float, ptr %56, i64 6
  %58 = load float, ptr %57, align 4, !tbaa !100
  %59 = fpext float %58 to double
  %60 = load double, ptr %13, align 8, !tbaa !182
  %61 = load ptr, ptr %11, align 8, !tbaa !87
  %62 = getelementptr inbounds float, ptr %61, i64 7
  %63 = load float, ptr %62, align 4, !tbaa !100
  %64 = fpext float %63 to double
  %65 = fmul double %60, %64
  %66 = call double @llvm.fmuladd.f64(double %55, double %59, double %65)
  %67 = load double, ptr %14, align 8, !tbaa !182
  %68 = load ptr, ptr %11, align 8, !tbaa !87
  %69 = getelementptr inbounds float, ptr %68, i64 8
  %70 = load float, ptr %69, align 4, !tbaa !100
  %71 = fpext float %70 to double
  %72 = call double @llvm.fmuladd.f64(double %67, double %71, double %66)
  %73 = fptrunc double %72 to float
  %74 = load ptr, ptr %10, align 8, !tbaa !87
  store float %73, ptr %74, align 4, !tbaa !100
  ret void
}

; Function Attrs: mustprogress uwtable
define internal noundef i32 @_ZN7lodepngL19getAdaptationMatrixEPfiffffff(ptr noundef %0, i32 noundef %1, float noundef %2, float noundef %3, float noundef %4, float noundef %5, float noundef %6, float noundef %7) #0 {
  %9 = alloca ptr, align 8
  %10 = alloca i32, align 4
  %11 = alloca float, align 4
  %12 = alloca float, align 4
  %13 = alloca float, align 4
  %14 = alloca float, align 4
  %15 = alloca float, align 4
  %16 = alloca float, align 4
  %17 = alloca i32, align 4
  %18 = alloca ptr, align 8
  %19 = alloca ptr, align 8
  %20 = alloca float, align 4
  %21 = alloca float, align 4
  %22 = alloca float, align 4
  %23 = alloca float, align 4
  %24 = alloca float, align 4
  %25 = alloca float, align 4
  %26 = alloca float, align 4
  %27 = alloca float, align 4
  %28 = alloca float, align 4
  store ptr %0, ptr %9, align 8, !tbaa !87
  store i32 %1, ptr %10, align 4, !tbaa !9
  store float %2, ptr %11, align 4, !tbaa !100
  store float %3, ptr %12, align 4, !tbaa !100
  store float %4, ptr %13, align 4, !tbaa !100
  store float %5, ptr %14, align 4, !tbaa !100
  store float %6, ptr %15, align 4, !tbaa !100
  store float %7, ptr %16, align 4, !tbaa !100
  call void @llvm.lifetime.start.p0(i64 4, ptr %17) #19
  %29 = load i32, ptr %10, align 4, !tbaa !9
  %30 = icmp eq i32 %29, 0
  br i1 %30, label %31, label %59

31:                                               ; preds = %8
  store i32 0, ptr %17, align 4, !tbaa !9
  br label %32

32:                                               ; preds = %40, %31
  %33 = load i32, ptr %17, align 4, !tbaa !9
  %34 = icmp slt i32 %33, 9
  br i1 %34, label %35, label %43

35:                                               ; preds = %32
  %36 = load ptr, ptr %9, align 8, !tbaa !87
  %37 = load i32, ptr %17, align 4, !tbaa !9
  %38 = sext i32 %37 to i64
  %39 = getelementptr inbounds float, ptr %36, i64 %38
  store float 0.000000e+00, ptr %39, align 4, !tbaa !100
  br label %40

40:                                               ; preds = %35
  %41 = load i32, ptr %17, align 4, !tbaa !9
  %42 = add nsw i32 %41, 1
  store i32 %42, ptr %17, align 4, !tbaa !9
  br label %32, !llvm.loop !187

43:                                               ; preds = %32
  %44 = load float, ptr %14, align 4, !tbaa !100
  %45 = load float, ptr %11, align 4, !tbaa !100
  %46 = fdiv float %44, %45
  %47 = load ptr, ptr %9, align 8, !tbaa !87
  %48 = getelementptr inbounds float, ptr %47, i64 0
  store float %46, ptr %48, align 4, !tbaa !100
  %49 = load float, ptr %15, align 4, !tbaa !100
  %50 = load float, ptr %12, align 4, !tbaa !100
  %51 = fdiv float %49, %50
  %52 = load ptr, ptr %9, align 8, !tbaa !87
  %53 = getelementptr inbounds float, ptr %52, i64 4
  store float %51, ptr %53, align 4, !tbaa !100
  %54 = load float, ptr %16, align 4, !tbaa !100
  %55 = load float, ptr %13, align 4, !tbaa !100
  %56 = fdiv float %54, %55
  %57 = load ptr, ptr %9, align 8, !tbaa !87
  %58 = getelementptr inbounds float, ptr %57, i64 8
  store float %56, ptr %58, align 4, !tbaa !100
  br label %147

59:                                               ; preds = %8
  call void @llvm.lifetime.start.p0(i64 8, ptr %18) #19
  %60 = load i32, ptr %10, align 4, !tbaa !9
  %61 = icmp eq i32 %60, 1
  br i1 %61, label %62, label %63

62:                                               ; preds = %59
  br label %64

63:                                               ; preds = %59
  br label %64

64:                                               ; preds = %63, %62
  %65 = phi ptr [ @_ZZN7lodepngL19getAdaptationMatrixEPfiffffffE8bradford, %62 ], [ @_ZZN7lodepngL19getAdaptationMatrixEPfiffffffE8vonkries, %63 ]
  %66 = getelementptr inbounds [9 x float], ptr %65, i64 0, i64 0
  store ptr %66, ptr %18, align 8, !tbaa !87
  call void @llvm.lifetime.start.p0(i64 8, ptr %19) #19
  %67 = load i32, ptr %10, align 4, !tbaa !9
  %68 = icmp eq i32 %67, 1
  br i1 %68, label %69, label %70

69:                                               ; preds = %64
  br label %71

70:                                               ; preds = %64
  br label %71

71:                                               ; preds = %70, %69
  %72 = phi ptr [ @_ZZN7lodepngL19getAdaptationMatrixEPfiffffffE11bradfordinv, %69 ], [ @_ZZN7lodepngL19getAdaptationMatrixEPfiffffffE11vonkriesinv, %70 ]
  %73 = getelementptr inbounds [9 x float], ptr %72, i64 0, i64 0
  store ptr %73, ptr %19, align 8, !tbaa !87
  call void @llvm.lifetime.start.p0(i64 4, ptr %20) #19
  call void @llvm.lifetime.start.p0(i64 4, ptr %21) #19
  call void @llvm.lifetime.start.p0(i64 4, ptr %22) #19
  call void @llvm.lifetime.start.p0(i64 4, ptr %23) #19
  call void @llvm.lifetime.start.p0(i64 4, ptr %24) #19
  call void @llvm.lifetime.start.p0(i64 4, ptr %25) #19
  call void @llvm.lifetime.start.p0(i64 4, ptr %26) #19
  call void @llvm.lifetime.start.p0(i64 4, ptr %27) #19
  call void @llvm.lifetime.start.p0(i64 4, ptr %28) #19
  %74 = load ptr, ptr %18, align 8, !tbaa !87
  %75 = load float, ptr %11, align 4, !tbaa !100
  %76 = fpext float %75 to double
  %77 = load float, ptr %12, align 4, !tbaa !100
  %78 = fpext float %77 to double
  %79 = load float, ptr %13, align 4, !tbaa !100
  %80 = fpext float %79 to double
  call void @_ZN7lodepngL9mulMatrixEPfS0_S0_PKfddd(ptr noundef %20, ptr noundef %21, ptr noundef %22, ptr noundef %74, double noundef %76, double noundef %78, double noundef %80)
  %81 = load ptr, ptr %18, align 8, !tbaa !87
  %82 = load float, ptr %14, align 4, !tbaa !100
  %83 = fpext float %82 to double
  %84 = load float, ptr %15, align 4, !tbaa !100
  %85 = fpext float %84 to double
  %86 = load float, ptr %16, align 4, !tbaa !100
  %87 = fpext float %86 to double
  call void @_ZN7lodepngL9mulMatrixEPfS0_S0_PKfddd(ptr noundef %23, ptr noundef %24, ptr noundef %25, ptr noundef %81, double noundef %83, double noundef %85, double noundef %87)
  %88 = load float, ptr %23, align 4, !tbaa !100
  %89 = load float, ptr %20, align 4, !tbaa !100
  %90 = fdiv float %88, %89
  store float %90, ptr %26, align 4, !tbaa !100
  %91 = load float, ptr %24, align 4, !tbaa !100
  %92 = load float, ptr %21, align 4, !tbaa !100
  %93 = fdiv float %91, %92
  store float %93, ptr %27, align 4, !tbaa !100
  %94 = load float, ptr %25, align 4, !tbaa !100
  %95 = load float, ptr %22, align 4, !tbaa !100
  %96 = fdiv float %94, %95
  store float %96, ptr %28, align 4, !tbaa !100
  store i32 0, ptr %17, align 4, !tbaa !9
  br label %97

97:                                               ; preds = %140, %71
  %98 = load i32, ptr %17, align 4, !tbaa !9
  %99 = icmp slt i32 %98, 3
  br i1 %99, label %100, label %143

100:                                              ; preds = %97
  %101 = load float, ptr %26, align 4, !tbaa !100
  %102 = load ptr, ptr %18, align 8, !tbaa !87
  %103 = load i32, ptr %17, align 4, !tbaa !9
  %104 = add nsw i32 %103, 0
  %105 = sext i32 %104 to i64
  %106 = getelementptr inbounds float, ptr %102, i64 %105
  %107 = load float, ptr %106, align 4, !tbaa !100
  %108 = fmul float %101, %107
  %109 = load ptr, ptr %9, align 8, !tbaa !87
  %110 = load i32, ptr %17, align 4, !tbaa !9
  %111 = add nsw i32 %110, 0
  %112 = sext i32 %111 to i64
  %113 = getelementptr inbounds float, ptr %109, i64 %112
  store float %108, ptr %113, align 4, !tbaa !100
  %114 = load float, ptr %27, align 4, !tbaa !100
  %115 = load ptr, ptr %18, align 8, !tbaa !87
  %116 = load i32, ptr %17, align 4, !tbaa !9
  %117 = add nsw i32 %116, 3
  %118 = sext i32 %117 to i64
  %119 = getelementptr inbounds float, ptr %115, i64 %118
  %120 = load float, ptr %119, align 4, !tbaa !100
  %121 = fmul float %114, %120
  %122 = load ptr, ptr %9, align 8, !tbaa !87
  %123 = load i32, ptr %17, align 4, !tbaa !9
  %124 = add nsw i32 %123, 3
  %125 = sext i32 %124 to i64
  %126 = getelementptr inbounds float, ptr %122, i64 %125
  store float %121, ptr %126, align 4, !tbaa !100
  %127 = load float, ptr %28, align 4, !tbaa !100
  %128 = load ptr, ptr %18, align 8, !tbaa !87
  %129 = load i32, ptr %17, align 4, !tbaa !9
  %130 = add nsw i32 %129, 6
  %131 = sext i32 %130 to i64
  %132 = getelementptr inbounds float, ptr %128, i64 %131
  %133 = load float, ptr %132, align 4, !tbaa !100
  %134 = fmul float %127, %133
  %135 = load ptr, ptr %9, align 8, !tbaa !87
  %136 = load i32, ptr %17, align 4, !tbaa !9
  %137 = add nsw i32 %136, 6
  %138 = sext i32 %137 to i64
  %139 = getelementptr inbounds float, ptr %135, i64 %138
  store float %134, ptr %139, align 4, !tbaa !100
  br label %140

140:                                              ; preds = %100
  %141 = load i32, ptr %17, align 4, !tbaa !9
  %142 = add nsw i32 %141, 1
  store i32 %142, ptr %17, align 4, !tbaa !9
  br label %97, !llvm.loop !188

143:                                              ; preds = %97
  %144 = load ptr, ptr %9, align 8, !tbaa !87
  %145 = load ptr, ptr %19, align 8, !tbaa !87
  %146 = load ptr, ptr %9, align 8, !tbaa !87
  call void @_ZN7lodepngL15mulMatrixMatrixEPfPKfS2_(ptr noundef %144, ptr noundef %145, ptr noundef %146)
  call void @llvm.lifetime.end.p0(i64 4, ptr %28) #19
  call void @llvm.lifetime.end.p0(i64 4, ptr %27) #19
  call void @llvm.lifetime.end.p0(i64 4, ptr %26) #19
  call void @llvm.lifetime.end.p0(i64 4, ptr %25) #19
  call void @llvm.lifetime.end.p0(i64 4, ptr %24) #19
  call void @llvm.lifetime.end.p0(i64 4, ptr %23) #19
  call void @llvm.lifetime.end.p0(i64 4, ptr %22) #19
  call void @llvm.lifetime.end.p0(i64 4, ptr %21) #19
  call void @llvm.lifetime.end.p0(i64 4, ptr %20) #19
  call void @llvm.lifetime.end.p0(i64 8, ptr %19) #19
  call void @llvm.lifetime.end.p0(i64 8, ptr %18) #19
  br label %147

147:                                              ; preds = %143, %43
  call void @llvm.lifetime.end.p0(i64 4, ptr %17) #19
  ret i32 0
}