; Function Attrs: mustprogress nofree norecurse nosync nounwind memory(argmem: readwrite) uwtable
define internal fastcc void @_ZN7lodepngL19getAdaptationMatrixEPfiffffff(ptr noundef nonnull captures(none) %0, float noundef %1, float noundef %2, float noundef %3, float noundef %4, float noundef %5, float noundef %6) unnamed_addr #11 {
  %8 = fpext float %1 to double
  %9 = fpext float %2 to double
  %10 = fpext float %3 to double
  %11 = fmul double %9, 0x3FD10CB2A0000000
  %12 = tail call double @llvm.fmuladd.f64(double %8, double 0x3FECA4A8C0000000, double %11)
  %13 = tail call double @llvm.fmuladd.f64(double %10, double 0xBFC4A8C160000000, double %12)
  %14 = fptrunc double %13 to float
  %15 = fmul double %9, 0x3FFB6A7F00000000
  %16 = tail call double @llvm.fmuladd.f64(double %8, double 0xBFE801A360000000, double %15)
  %17 = tail call double @llvm.fmuladd.f64(double %10, double 0x3FA2CA57A0000000, double %16)
  %18 = fptrunc double %17 to float
  %19 = fmul double %9, 0xBFB1893740000000
  %20 = tail call double @llvm.fmuladd.f64(double %8, double 0x3FA3EAB360000000, double %19)
  %21 = tail call double @llvm.fmuladd.f64(double %10, double 0x3FF0793DE0000000, double %20)
  %22 = fptrunc double %21 to float
  %23 = fpext float %4 to double
  %24 = fpext float %5 to double
  %25 = fpext float %6 to double
  %26 = fmul double %24, 0x3FD10CB2A0000000
  %27 = tail call double @llvm.fmuladd.f64(double %23, double 0x3FECA4A8C0000000, double %26)
  %28 = tail call double @llvm.fmuladd.f64(double %25, double 0xBFC4A8C160000000, double %27)
  %29 = fptrunc double %28 to float
  %30 = fmul double %24, 0x3FFB6A7F00000000
  %31 = tail call double @llvm.fmuladd.f64(double %23, double 0xBFE801A360000000, double %30)
  %32 = tail call double @llvm.fmuladd.f64(double %25, double 0x3FA2CA57A0000000, double %31)
  %33 = fptrunc double %32 to float
  %34 = fmul double %24, 0xBFB1893740000000
  %35 = tail call double @llvm.fmuladd.f64(double %23, double 0x3FA3EAB360000000, double %34)
  %36 = tail call double @llvm.fmuladd.f64(double %25, double 0x3FF0793DE0000000, double %35)
  %37 = fptrunc double %36 to float
  %38 = fdiv float %29, %14
  %39 = fdiv float %33, %18
  %40 = fdiv float %37, %22
  br label %41

41:                                               ; preds = %7, %41
  %indvars.iv = phi i64 [ 0, %7 ], [ %indvars.iv.next, %41 ]
  %42 = getelementptr inbounds nuw float, ptr @_ZZN7lodepngL19getAdaptationMatrixEPfiffffffE8bradford, i64 %indvars.iv
  %43 = load float, ptr %42, align 4, !tbaa !79
  %44 = fmul float %38, %43
  %45 = getelementptr inbounds nuw float, ptr %0, i64 %indvars.iv
  store float %44, ptr %45, align 4, !tbaa !79
  %46 = add nuw nsw i64 %indvars.iv, 3
  %47 = getelementptr inbounds nuw float, ptr @_ZZN7lodepngL19getAdaptationMatrixEPfiffffffE8bradford, i64 %46
  %48 = load float, ptr %47, align 4, !tbaa !79
  %49 = fmul float %39, %48
  %50 = getelementptr inbounds nuw float, ptr %0, i64 %46
  store float %49, ptr %50, align 4, !tbaa !79
  %51 = add nuw nsw i64 %indvars.iv, 6
  %52 = getelementptr inbounds nuw float, ptr @_ZZN7lodepngL19getAdaptationMatrixEPfiffffffE8bradford, i64 %51
  %53 = load float, ptr %52, align 4, !tbaa !79
  %54 = fmul float %40, %53
  %55 = getelementptr inbounds nuw float, ptr %0, i64 %51
  store float %54, ptr %55, align 4, !tbaa !79
  %indvars.iv.next = add nuw nsw i64 %indvars.iv, 1
  %exitcond.not = icmp eq i64 %indvars.iv.next, 3
  br i1 %exitcond.not, label %56, label %41, !llvm.loop !145

56:                                               ; preds = %41
  %57 = load float, ptr %0, align 4, !tbaa !79
  %58 = fpext float %57 to double
  %59 = getelementptr inbounds nuw i8, ptr %0, i64 12
  %60 = load float, ptr %59, align 4, !tbaa !79
  %61 = fpext float %60 to double
  %62 = getelementptr inbounds nuw i8, ptr %0, i64 24
  %63 = load float, ptr %62, align 4, !tbaa !79
  %64 = fpext float %63 to double
  %65 = fmul double %61, 0xBFC2D2ACE0000000
  %66 = tail call double @llvm.fmuladd.f64(double %58, double 0x3FEF957220000000, double %65)
  %67 = tail call double @llvm.fmuladd.f64(double %64, double 0x3FC479A860000000, double %66)
  %68 = fptrunc double %67 to float
  %69 = fmul double %61, 0x3FE0966860000000
  %70 = tail call double @llvm.fmuladd.f64(double %58, double 0x3FDBAAE3E0000000, double %69)
  %71 = tail call double @llvm.fmuladd.f64(double %64, double 0x3FA93CB240000000, double %70)
  %72 = fptrunc double %71 to float
  %73 = fmul double %61, 0x3FA4807D60000000
  %74 = tail call double @llvm.fmuladd.f64(double %58, double 0xBF81777EC0000000, double %73)
  %75 = tail call double @llvm.fmuladd.f64(double %64, double 0x3FEEFDD7E0000000, double %74)
  %76 = fptrunc double %75 to float
  %77 = getelementptr inbounds nuw i8, ptr %0, i64 4
  %78 = load float, ptr %77, align 4, !tbaa !79
  %79 = fpext float %78 to double
  %80 = getelementptr inbounds nuw i8, ptr %0, i64 16
  %81 = load float, ptr %80, align 4, !tbaa !79
  %82 = fpext float %81 to double
  %83 = getelementptr inbounds nuw i8, ptr %0, i64 28
  %84 = load float, ptr %83, align 4, !tbaa !79
  %85 = fpext float %84 to double
  %86 = fmul double %82, 0xBFC2D2ACE0000000
  %87 = tail call double @llvm.fmuladd.f64(double %79, double 0x3FEF957220000000, double %86)
  %88 = tail call double @llvm.fmuladd.f64(double %85, double 0x3FC479A860000000, double %87)
  %89 = fptrunc double %88 to float
  %90 = fmul double %82, 0x3FE0966860000000
  %91 = tail call double @llvm.fmuladd.f64(double %79, double 0x3FDBAAE3E0000000, double %90)
  %92 = tail call double @llvm.fmuladd.f64(double %85, double 0x3FA93CB240000000, double %91)
  %93 = fptrunc double %92 to float
  %94 = fmul double %82, 0x3FA4807D60000000
  %95 = tail call double @llvm.fmuladd.f64(double %79, double 0xBF81777EC0000000, double %94)
  %96 = tail call double @llvm.fmuladd.f64(double %85, double 0x3FEEFDD7E0000000, double %95)
  %97 = fptrunc double %96 to float
  %98 = getelementptr inbounds nuw i8, ptr %0, i64 8
  %99 = load float, ptr %98, align 4, !tbaa !79
  %100 = fpext float %99 to double
  %101 = getelementptr inbounds nuw i8, ptr %0, i64 20
  %102 = load float, ptr %101, align 4, !tbaa !79
  %103 = fpext float %102 to double
  %104 = getelementptr inbounds nuw i8, ptr %0, i64 32
  %105 = load float, ptr %104, align 4, !tbaa !79
  %106 = fpext float %105 to double
  %107 = fmul double %103, 0xBFC2D2ACE0000000
  %108 = tail call double @llvm.fmuladd.f64(double %100, double 0x3FEF957220000000, double %107)
  %109 = tail call double @llvm.fmuladd.f64(double %106, double 0x3FC479A860000000, double %108)
  %110 = fptrunc double %109 to float
  %111 = fmul double %103, 0x3FE0966860000000
  %112 = tail call double @llvm.fmuladd.f64(double %100, double 0x3FDBAAE3E0000000, double %111)
  %113 = tail call double @llvm.fmuladd.f64(double %106, double 0x3FA93CB240000000, double %112)
  %114 = fptrunc double %113 to float
  %115 = fmul double %103, 0x3FA4807D60000000
  %116 = tail call double @llvm.fmuladd.f64(double %100, double 0xBF81777EC0000000, double %115)
  %117 = tail call double @llvm.fmuladd.f64(double %106, double 0x3FEEFDD7E0000000, double %116)
  %118 = fptrunc double %117 to float
  store float %68, ptr %0, align 4, !tbaa !79
  store float %89, ptr %77, align 4, !tbaa !79
  store float %110, ptr %98, align 4, !tbaa !79
  store float %72, ptr %59, align 4, !tbaa !79
  store float %93, ptr %80, align 4, !tbaa !79
  store float %114, ptr %101, align 4, !tbaa !79
  store float %76, ptr %62, align 4, !tbaa !79
  store float %97, ptr %83, align 4, !tbaa !79
  store float %118, ptr %104, align 4, !tbaa !79
  ret void
}